target datalayout = "e-m:e-p270:32:32-p271:32:32-p272:64:64-i64:64-i128:128-f80:128-n8:16:32:64-S128"
target triple = "x86_64-pc-linux-gnu"

%struct.gmx_global_stat = type { ptr, ptr, ptr }

@.str = private unnamed_addr constant [3 x i8] c"gs\00", align 1
@.str.1 = private unnamed_addr constant [120 x i8] c"generated/home/dtcxzyw/WorkSpace/Projects/compilers/llvm-opt-benchmark/bench/gromacs/gromacs/src/gromacs/mdlib/stat.cpp\00", align 1
@.str.2 = private unnamed_addr constant [9 x i8] c"gs->itc0\00", align 1
@.str.3 = private unnamed_addr constant [9 x i8] c"gs->itc1\00", align 1

; Function Attrs: inlinehint mustprogress uwtable
define internal void @_ZL14gmx_sfree_implI15gmx_global_statEvPKcS2_iPT_(ptr noundef %0, ptr noundef %1, i32 noundef %2, ptr noundef %3) #2 {
  %5 = alloca ptr, align 8
  %6 = alloca ptr, align 8
  %7 = alloca i32, align 4
  %8 = alloca ptr, align 8
  store ptr %0, ptr %5, align 8, !tbaa !108
  store ptr %1, ptr %6, align 8, !tbaa !108
  store i32 %2, ptr %7, align 4, !tbaa !110
  store ptr %3, ptr %8, align 8, !tbaa !9
  %9 = load ptr, ptr %5, align 8, !tbaa !108
  %10 = load ptr, ptr %6, align 8, !tbaa !108
  %11 = load i32, ptr %7, align 4, !tbaa !110
  %12 = load ptr, ptr %8, align 8, !tbaa !9
  call void @_Z9save_freePKcS0_iPv(ptr noundef %9, ptr noundef %10, i32 noundef %11, ptr noundef %12)
  ret void
}

; Function Attrs: inlinehint mustprogress uwtable
define internal void @_ZL14gmx_sfree_implIiEvPKcS1_iPT_(ptr noundef %0, ptr noundef %1, i32 noundef %2, ptr noundef %3) #2 {
  %5 = alloca ptr, align 8
  %6 = alloca ptr, align 8
  %7 = alloca i32, align 4
  %8 = alloca ptr, align 8
  store ptr %0, ptr %5, align 8, !tbaa !108
  store ptr %1, ptr %6, align 8, !tbaa !108
  store i32 %2, ptr %7, align 4, !tbaa !110
  store ptr %3, ptr %8, align 8, !tbaa !116
  %9 = load ptr, ptr %5, align 8, !tbaa !108
  %10 = load ptr, ptr %6, align 8, !tbaa !108
  %11 = load i32, ptr %7, align 4, !tbaa !110
  %12 = load ptr, ptr %8, align 8, !tbaa !116
  call void @_Z9save_freePKcS0_iPv(ptr noundef %9, ptr noundef %10, i32 noundef %11, ptr noundef %12)
  ret void
}

; Function Attrs: mustprogress uwtable
define void @_Z19global_stat_destroyP15gmx_global_stat(ptr noundef %0) #0 {
  %2 = alloca ptr, align 8
  store ptr %0, ptr %2, align 8, !tbaa !9
  %3 = load ptr, ptr %2, align 8, !tbaa !9
  %4 = getelementptr inbounds nuw %struct.gmx_global_stat, ptr %3, i32 0, i32 0
  %5 = load ptr, ptr %4, align 8, !tbaa !11
  call void @_Z11destroy_binP5t_bin(ptr noundef %5)
  %6 = load ptr, ptr %2, align 8, !tbaa !9
  %7 = getelementptr inbounds nuw %struct.gmx_global_stat, ptr %6, i32 0, i32 1
  %8 = load ptr, ptr %7, align 8, !tbaa !117
  call void @_ZL14gmx_sfree_implIiEvPKcS1_iPT_(ptr noundef @.str.2, ptr noundef @.str.1, i32 noundef 93, ptr noundef %8)
  %9 = load ptr, ptr %2, align 8, !tbaa !9
  %10 = getelementptr inbounds nuw %struct.gmx_global_stat, ptr %9, i32 0, i32 2
  %11 = load ptr, ptr %10, align 8, !tbaa !118
  call void @_ZL14gmx_sfree_implIiEvPKcS1_iPT_(ptr noundef @.str.3, ptr noundef @.str.1, i32 noundef 94, ptr noundef %11)
  %12 = load ptr, ptr %2, align 8, !tbaa !9
  call void @_ZL14gmx_sfree_implI15gmx_global_statEvPKcS2_iPT_(ptr noundef @.str, ptr noundef @.str.1, i32 noundef 95, ptr noundef %12)
  ret void
}