; Function Attrs: mustprogress uwtable
define void @_Z19global_stat_destroyP15gmx_global_stat(ptr noundef %0) local_unnamed_addr #0 {
  %2 = load ptr, ptr %0, align 8, !tbaa !4
  tail call void @_Z11destroy_binP5t_bin(ptr noundef %2)
  %3 = getelementptr inbounds nuw i8, ptr %0, i64 8
  %4 = load ptr, ptr %3, align 8, !tbaa !105
  tail call void @_Z9save_freePKcS0_iPv(ptr noundef nonnull @.str.2, ptr noundef nonnull @.str.1, i32 noundef 93, ptr noundef %4)
  %5 = getelementptr inbounds nuw i8, ptr %0, i64 16
  %6 = load ptr, ptr %5, align 8, !tbaa !106
  tail call void @_Z9save_freePKcS0_iPv(ptr noundef nonnull @.str.3, ptr noundef nonnull @.str.1, i32 noundef 94, ptr noundef %6)
  tail call void @_Z9save_freePKcS0_iPv(ptr noundef nonnull @.str, ptr noundef nonnull @.str.1, i32 noundef 95, ptr noundef nonnull %0)
  ret void
}